; Function Attrs: nounwind uwtable
define internal fastcc zeroext i1 @_equalPublicationObjSpec(ptr noundef nonnull readonly captures(none) %0, ptr noundef nonnull readonly captures(none) %1) unnamed_addr #0 {
  %3 = getelementptr inbounds nuw i8, ptr %0, i64 4
  %4 = load i32, ptr %3, align 4
  %5 = getelementptr inbounds nuw i8, ptr %1, i64 4
  %6 = load i32, ptr %5, align 4
  %.not = icmp eq i32 %4, %6
  br i1 %.not, label %7, label %.thread

7:                                                ; preds = %2
  %8 = getelementptr inbounds nuw i8, ptr %0, i64 8
  %9 = load ptr, ptr %8, align 8
  %.not13 = icmp eq ptr %9, null
  %.phi.trans.insert = getelementptr inbounds nuw i8, ptr %1, i64 8
  %.pre = load ptr, ptr %.phi.trans.insert, align 8
  br i1 %.not13, label %14, label %10

10:                                               ; preds = %7
  %.not14 = icmp eq ptr %.pre, null
  br i1 %.not14, label %.thread, label %11

11:                                               ; preds = %10
  %12 = tail call i32 @strcmp(ptr noundef nonnull dereferenceable(1) %9, ptr noundef nonnull dereferenceable(1) %.pre) #11
  %13 = icmp eq i32 %12, 0
  br i1 %13, label %16, label %.thread

14:                                               ; preds = %7
  %15 = icmp eq ptr %9, %.pre
  br i1 %15, label %16, label %.thread

16:                                               ; preds = %14, %11
  %17 = getelementptr inbounds nuw i8, ptr %0, i64 16
  %18 = load ptr, ptr %17, align 8
  %19 = getelementptr inbounds nuw i8, ptr %1, i64 16
  %20 = load ptr, ptr %19, align 8
  %21 = tail call zeroext i1 @equal(ptr noundef %18, ptr noundef %20)
  br label %.thread

.thread:                                          ; preds = %10, %16, %11, %14, %2
  %.0 = phi i1 [ false, %2 ], [ false, %14 ], [ false, %11 ], [ %21, %16 ], [ false, %10 ]
  ret i1 %.0
}